target datalayout = "e-m:e-p270:32:32-p271:32:32-p272:64:64-i64:64-i128:128-f80:128-n8:16:32:64-S128"
target triple = "x86_64-pc-linux-gnu"

%struct._archiveHandle = type { %struct.Archive, i32, ptr, ptr, i64, i64, i32, %struct.sqlparseInfo, i64, i32, ptr, i64, i64, i64, ptr, ptr, ptr, ptr, ptr, ptr, ptr, ptr, ptr, ptr, ptr, ptr, ptr, ptr, ptr, ptr, ptr, ptr, ptr, ptr, ptr, ptr, ptr, ptr, ptr, ptr, ptr, ptr, ptr, ptr, i32, i32, i8, i32, i8, i32, ptr, ptr, ptr, ptr, i32, i32, ptr, ptr, ptr, %struct.pg_compress_specification, i8, i32, i32, ptr, ptr, ptr, ptr, ptr, i32, ptr, i64, i64, i32, i32, i32, i32, ptr, ptr }
%struct.Archive = type { ptr, ptr, i32, ptr, i32, i8, i32, i32, i32, ptr, i32, i8, ptr, ptr, i8, i32, ptr }
%struct.sqlparseInfo = type { i32, i8, ptr }
%struct.pg_compress_specification = type { i32, i32, i32, i32, i8, ptr }

@.str.16 = private unnamed_addr constant [35 x i8] c"error returned by PQputCopyEnd: %s\00", align 1
@.str.17 = private unnamed_addr constant [31 x i8] c"COPY failed for table \22%s\22: %s\00", align 1
@.str.18 = private unnamed_addr constant [51 x i8] c"unexpected extra results during COPY of table \22%s\22\00", align 1

; Function Attrs: nounwind uwtable
define dso_local void @EndDBCopyMode(ptr noundef %0, ptr noundef %1) #0 {
  %3 = alloca ptr, align 8
  %4 = alloca ptr, align 8
  %5 = alloca ptr, align 8
  %6 = alloca ptr, align 8
  store ptr %0, ptr %3, align 8
  store ptr %1, ptr %4, align 8
  call void @llvm.lifetime.start.p0(i64 8, ptr %5) #9
  %7 = load ptr, ptr %3, align 8
  store ptr %7, ptr %5, align 8
  %8 = load ptr, ptr %5, align 8
  %9 = getelementptr inbounds nuw %struct._archiveHandle, ptr %8, i32 0, i32 46
  %10 = load i8, ptr %9, align 8, !range !4, !noundef !5
  %11 = trunc i8 %10 to i1
  br i1 %11, label %12, label %53

12:                                               ; preds = %2
  call void @llvm.lifetime.start.p0(i64 8, ptr %6) #9
  %13 = load ptr, ptr %5, align 8
  %14 = getelementptr inbounds nuw %struct._archiveHandle, ptr %13, i32 0, i32 42
  %15 = load ptr, ptr %14, align 8
  %16 = call i32 @PQputCopyEnd(ptr noundef %15, ptr noundef null)
  %17 = icmp sle i32 %16, 0
  br i1 %17, label %18, label %26

18:                                               ; preds = %12
  br label %19

19:                                               ; preds = %18
  %20 = load ptr, ptr %5, align 8
  %21 = getelementptr inbounds nuw %struct._archiveHandle, ptr %20, i32 0, i32 42
  %22 = load ptr, ptr %21, align 8
  %23 = call ptr @PQerrorMessage(ptr noundef %22)
  call void (i32, i32, ptr, ...) @pg_log_generic(i32 noundef 4, i32 noundef 0, ptr noundef @.str.16, ptr noundef %23)
  call void @exit_nicely(i32 noundef 1) #10
  unreachable

24:                                               ; No predecessors!
  br label %25

25:                                               ; preds = %24
  br label %26

26:                                               ; preds = %25, %12
  %27 = load ptr, ptr %5, align 8
  %28 = getelementptr inbounds nuw %struct._archiveHandle, ptr %27, i32 0, i32 42
  %29 = load ptr, ptr %28, align 8
  %30 = call ptr @PQgetResult(ptr noundef %29)
  store ptr %30, ptr %6, align 8
  %31 = load ptr, ptr %6, align 8
  %32 = call i32 @PQresultStatus(ptr noundef %31)
  %33 = icmp ne i32 %32, 1
  br i1 %33, label %34, label %41

34:                                               ; preds = %26
  %35 = load ptr, ptr %5, align 8
  %36 = load ptr, ptr %4, align 8
  %37 = load ptr, ptr %5, align 8
  %38 = getelementptr inbounds nuw %struct._archiveHandle, ptr %37, i32 0, i32 42
  %39 = load ptr, ptr %38, align 8
  %40 = call ptr @PQerrorMessage(ptr noundef %39)
  call void (ptr, ptr, ...) @warn_or_exit_horribly(ptr noundef %35, ptr noundef @.str.17, ptr noundef %36, ptr noundef %40)
  br label %41

41:                                               ; preds = %34, %26
  %42 = load ptr, ptr %6, align 8
  call void @PQclear(ptr noundef %42)
  %43 = load ptr, ptr %5, align 8
  %44 = getelementptr inbounds nuw %struct._archiveHandle, ptr %43, i32 0, i32 42
  %45 = load ptr, ptr %44, align 8
  %46 = call ptr @PQgetResult(ptr noundef %45)
  %47 = icmp ne ptr %46, null
  br i1 %47, label %48, label %50

48:                                               ; preds = %41
  %49 = load ptr, ptr %4, align 8
  call void (i32, i32, ptr, ...) @pg_log_generic(i32 noundef 3, i32 noundef 0, ptr noundef @.str.18, ptr noundef %49)
  br label %50

50:                                               ; preds = %48, %41
  %51 = load ptr, ptr %5, align 8
  %52 = getelementptr inbounds nuw %struct._archiveHandle, ptr %51, i32 0, i32 46
  store i8 0, ptr %52, align 8
  call void @llvm.lifetime.end.p0(i64 8, ptr %6) #9
  br label %53

53:                                               ; preds = %50, %2
  call void @llvm.lifetime.end.p0(i64 8, ptr %5) #9
  ret void
}