; Function Attrs: nounwind uwtable
define dso_local void @EndDBCopyMode(ptr noundef %0, ptr noundef %1) local_unnamed_addr #0 {
  %3 = getelementptr inbounds nuw i8, ptr %0, i64 464
  %4 = load i8, ptr %3, align 8, !range !6, !noundef !7
  %5 = trunc nuw i8 %4 to i1
  br i1 %5, label %6, label %25

6:                                                ; preds = %2
  %7 = getelementptr inbounds nuw i8, ptr %0, i64 440
  %8 = load ptr, ptr %7, align 8
  %9 = tail call i32 @PQputCopyEnd(ptr noundef %8, ptr noundef null) #11
  %10 = icmp slt i32 %9, 1
  %11 = load ptr, ptr %7, align 8
  br i1 %10, label %12, label %14

12:                                               ; preds = %6
  %13 = tail call ptr @PQerrorMessage(ptr noundef %11) #11
  tail call void (i32, i32, ptr, ...) @pg_log_generic(i32 noundef 4, i32 noundef 0, ptr noundef nonnull @.str.16, ptr noundef %13) #11
  tail call void @exit_nicely(i32 noundef 1) #12
  unreachable

14:                                               ; preds = %6
  %15 = tail call ptr @PQgetResult(ptr noundef %11) #11
  %16 = tail call i32 @PQresultStatus(ptr noundef %15) #11
  %.not = icmp eq i32 %16, 1
  br i1 %.not, label %20, label %17

17:                                               ; preds = %14
  %18 = load ptr, ptr %7, align 8
  %19 = tail call ptr @PQerrorMessage(ptr noundef %18) #11
  tail call void (ptr, ptr, ...) @warn_or_exit_horribly(ptr noundef nonnull %0, ptr noundef nonnull @.str.17, ptr noundef %1, ptr noundef %19) #11
  br label %20

20:                                               ; preds = %17, %14
  tail call void @PQclear(ptr noundef %15) #11
  %21 = load ptr, ptr %7, align 8
  %22 = tail call ptr @PQgetResult(ptr noundef %21) #11
  %.not13 = icmp eq ptr %22, null
  br i1 %.not13, label %24, label %23

23:                                               ; preds = %20
  tail call void (i32, i32, ptr, ...) @pg_log_generic(i32 noundef 3, i32 noundef 0, ptr noundef nonnull @.str.18, ptr noundef %1) #11
  br label %24

24:                                               ; preds = %23, %20
  store i8 0, ptr %3, align 8
  br label %25

25:                                               ; preds = %24, %2
  ret void
}